; Function Attrs: mustprogress uwtable
define void @_ZN10BigIntegeraSERKS_(ptr noundef nonnull align 8 captures(address) dereferenceable(24) %0, ptr noundef nonnull readonly align 8 captures(address) dereferenceable(24) %1) local_unnamed_addr #0 align 2 {
  %3 = icmp eq ptr %0, %1
  br i1 %3, label %_ZN11BigUnsignedaSERKS_.exit, label %4

4:                                                ; preds = %2
  %5 = load i32, ptr %1, align 8, !tbaa !6
  store i32 %5, ptr %0, align 8, !tbaa !6
  %6 = getelementptr inbounds nuw i8, ptr %0, i64 8
  %7 = getelementptr inbounds nuw i8, ptr %1, i64 12
  %8 = load i32, ptr %7, align 4, !tbaa !16
  %9 = getelementptr inbounds nuw i8, ptr %0, i64 12
  store i32 %8, ptr %9, align 4, !tbaa !16
  %10 = load i32, ptr %6, align 8, !tbaa !17
  %11 = icmp ugt i32 %8, %10
  br i1 %11, label %12, label %_ZN15NumberlikeArrayImE8allocateEj.exit.i.i

12:                                               ; preds = %4
  %13 = getelementptr inbounds nuw i8, ptr %0, i64 16
  %14 = load ptr, ptr %13, align 8, !tbaa !18
  %15 = icmp eq ptr %14, null
  br i1 %15, label %17, label %16

16:                                               ; preds = %12
  tail call void @_ZdaPv(ptr noundef nonnull %14) #9
  %.pre.pre.i.i = load i32, ptr %9, align 4, !tbaa !16
  br label %17

17:                                               ; preds = %16, %12
  %.pre.i.i = phi i32 [ %.pre.pre.i.i, %16 ], [ %8, %12 ]
  store i32 %8, ptr %6, align 8, !tbaa !17
  %18 = zext i32 %8 to i64
  %19 = shl nuw nsw i64 %18, 3
  %20 = tail call noalias noundef nonnull ptr @_Znam(i64 noundef %19) #10
  store ptr %20, ptr %13, align 8, !tbaa !18
  br label %_ZN15NumberlikeArrayImE8allocateEj.exit.i.i

_ZN15NumberlikeArrayImE8allocateEj.exit.i.i:      ; preds = %17, %4
  %21 = phi i32 [ %8, %4 ], [ %.pre.i.i, %17 ]
  %.not.i.i = icmp eq i32 %21, 0
  br i1 %.not.i.i, label %_ZN11BigUnsignedaSERKS_.exit, label %.lr.ph.i.i

.lr.ph.i.i:                                       ; preds = %_ZN15NumberlikeArrayImE8allocateEj.exit.i.i
  %22 = getelementptr inbounds nuw i8, ptr %1, i64 16
  %23 = load ptr, ptr %22, align 8, !tbaa !18
  %24 = getelementptr inbounds nuw i8, ptr %0, i64 16
  %25 = load ptr, ptr %24, align 8, !tbaa !18
  %wide.trip.count.i.i = zext i32 %21 to i64
  br label %26

26:                                               ; preds = %26, %.lr.ph.i.i
  %indvars.iv.i.i = phi i64 [ 0, %.lr.ph.i.i ], [ %indvars.iv.next.i.i, %26 ]
  %27 = getelementptr inbounds nuw i64, ptr %23, i64 %indvars.iv.i.i
  %28 = load i64, ptr %27, align 8, !tbaa !19
  %29 = getelementptr inbounds nuw i64, ptr %25, i64 %indvars.iv.i.i
  store i64 %28, ptr %29, align 8, !tbaa !19
  %indvars.iv.next.i.i = add nuw nsw i64 %indvars.iv.i.i, 1
  %exitcond.not.i.i = icmp eq i64 %indvars.iv.next.i.i, %wide.trip.count.i.i
  br i1 %exitcond.not.i.i, label %_ZN11BigUnsignedaSERKS_.exit, label %26, !llvm.loop !21

_ZN11BigUnsignedaSERKS_.exit:                     ; preds = %26, %_ZN15NumberlikeArrayImE8allocateEj.exit.i.i, %2
  ret void
}